; Function Attrs: mustprogress nofree nounwind willreturn memory(readwrite, inaccessiblemem: write) uwtable
define internal noundef i32 @Jsi(double noundef %0, ptr noundef readonly captures(none) %1, ptr readnone captures(none) %2, ptr noundef readonly captures(none) %3, ptr noundef readonly captures(none) %4, ptr readnone captures(none) %5, ptr readnone captures(none) %6, ptr readnone captures(none) %7) #5 {
  %9 = load double, ptr %4, align 8, !tbaa !12
  %10 = getelementptr inbounds nuw i8, ptr %4, i64 16
  %11 = load double, ptr %10, align 8, !tbaa !12
  %12 = load ptr, ptr %1, align 8, !tbaa !18
  %13 = getelementptr inbounds nuw i8, ptr %12, i64 16
  %14 = load ptr, ptr %13, align 8, !tbaa !21
  %15 = load double, ptr %14, align 8, !tbaa !12
  %16 = getelementptr inbounds nuw i8, ptr %14, i64 8
  %17 = load double, ptr %16, align 8, !tbaa !12
  %18 = fmul double %9, 5.000000e-01
  %19 = tail call double @cos(double noundef %0) #9, !tbaa !26
  %20 = fmul double %19, 5.000000e-01
  %21 = fadd double %20, 1.000000e+00
  %22 = fmul double %9, %21
  %23 = fmul double %15, 2.000000e+00
  %24 = fmul double %15, %23
  %25 = fdiv double %22, %24
  %26 = fadd double %18, %25
  %27 = load ptr, ptr %3, align 8, !tbaa !37
  %28 = getelementptr inbounds nuw i8, ptr %27, i64 32
  %29 = load ptr, ptr %28, align 8, !tbaa !40
  %30 = load ptr, ptr %29, align 8, !tbaa !30
  store double %26, ptr %30, align 8, !tbaa !12
  %31 = fmul double %11, 5.000000e-01
  %32 = getelementptr i8, ptr %4, i64 8
  %.val = load double, ptr %32, align 8, !tbaa !12
  %33 = fmul double %0, %.val
  %34 = tail call double @cos(double noundef %33) #9, !tbaa !26
  %35 = fadd double %34, 2.000000e+00
  %36 = fmul double %11, %35
  %37 = fmul double %17, 2.000000e+00
  %38 = fmul double %17, %37
  %39 = fdiv double %36, %38
  %40 = fadd double %31, %39
  %41 = getelementptr inbounds nuw i8, ptr %29, i64 8
  %42 = load ptr, ptr %41, align 8, !tbaa !30
  store double %40, ptr %42, align 8, !tbaa !12
  %43 = getelementptr inbounds nuw i8, ptr %30, i64 8
  store double 0.000000e+00, ptr %43, align 8, !tbaa !12
  %44 = getelementptr inbounds nuw i8, ptr %42, i64 8
  store double 0.000000e+00, ptr %44, align 8, !tbaa !12
  ret i32 0
}